; Function Attrs: nounwind uwtable
define ptr @l_Lean_Compiler_LCNF_CollectLevelParams_visitArgs___boxed(ptr noundef %0, ptr noundef %1) local_unnamed_addr #1 {
  %3 = getelementptr i8, ptr %0, i64 8
  %.val.i = load i64, ptr %3, align 8, !tbaa !12
  %.mask.i = and i64 %.val.i, 9223372036854775807
  %.not.i4 = icmp eq i64 %.mask.i, 0
  br i1 %.not.i4, label %l_Lean_Compiler_LCNF_CollectLevelParams_visitArgs.exit, label %.lr.ph.i.i

.lr.ph.i.i:                                       ; preds = %2
  %4 = getelementptr inbounds nuw i8, ptr %0, i64 24
  br label %5

5:                                                ; preds = %16, %.lr.ph.i.i
  %.01427.i.i = phi i64 [ 0, %.lr.ph.i.i ], [ %18, %16 ]
  %.01626.i.i = phi ptr [ %1, %.lr.ph.i.i ], [ %17, %16 ]
  %6 = getelementptr inbounds nuw [0 x ptr], ptr %4, i64 0, i64 %.01427.i.i
  %7 = load ptr, ptr %6, align 8, !tbaa !4
  %8 = ptrtoint ptr %7 to i64
  %9 = and i64 %8, 1
  %.not.i.i.i = icmp eq i64 %9, 0
  br i1 %.not.i.i.i, label %10, label %16

10:                                               ; preds = %5
  %.val.i.i.i.i = load i32, ptr %7, align 4, !tbaa !8
  %11 = icmp sgt i32 %.val.i.i.i.i, 0
  br i1 %11, label %12, label %14, !prof !11

12:                                               ; preds = %10
  %13 = add nuw i32 %.val.i.i.i.i, 1
  store i32 %13, ptr %7, align 4, !tbaa !8
  br label %16

14:                                               ; preds = %10
  %.not.i.i.i.i = icmp eq i32 %.val.i.i.i.i, 0
  br i1 %.not.i.i.i.i, label %16, label %15

15:                                               ; preds = %14
  tail call void @lean_inc_ref_cold(ptr noundef nonnull %7) #4
  br label %16

16:                                               ; preds = %15, %14, %12, %5
  %17 = tail call ptr @l_Lean_Compiler_LCNF_CollectLevelParams_visitArg(ptr noundef %7, ptr noundef %.01626.i.i)
  %18 = add nuw nsw i64 %.01427.i.i, 1
  %.not.i27.i = icmp eq i64 %18, %.mask.i
  br i1 %.not.i27.i, label %l_Lean_Compiler_LCNF_CollectLevelParams_visitArgs.exit, label %5

l_Lean_Compiler_LCNF_CollectLevelParams_visitArgs.exit: ; preds = %16, %2
  %.0.i = phi ptr [ %1, %2 ], [ %17, %16 ]
  %19 = ptrtoint ptr %0 to i64
  %20 = and i64 %19, 1
  %.not = icmp eq i64 %20, 0
  br i1 %.not, label %21, label %lean_dec.exit

21:                                               ; preds = %l_Lean_Compiler_LCNF_CollectLevelParams_visitArgs.exit
  %22 = load i32, ptr %0, align 4, !tbaa !8
  %23 = icmp sgt i32 %22, 1
  br i1 %23, label %24, label %26, !prof !11

24:                                               ; preds = %21
  %25 = add nsw i32 %22, -1
  store i32 %25, ptr %0, align 4, !tbaa !8
  br label %lean_dec.exit

26:                                               ; preds = %21
  %.not.i = icmp eq i32 %22, 0
  br i1 %.not.i, label %lean_dec.exit, label %27

27:                                               ; preds = %26
  tail call void @lean_dec_ref_cold(ptr noundef nonnull %0) #4
  br label %lean_dec.exit

lean_dec.exit:                                    ; preds = %27, %26, %24, %l_Lean_Compiler_LCNF_CollectLevelParams_visitArgs.exit
  ret ptr %.0.i
}